target datalayout = "e-m:e-p270:32:32-p271:32:32-p272:64:64-i64:64-i128:128-f80:128-n8:16:32:64-S128"
target triple = "x86_64-pc-linux-gnu"

%struct.dynhds = type { ptr, i64, i64, i64, i64, i64, i32 }

@Curl_cfree = external global ptr, align 8

; Function Attrs: nounwind uwtable
define internal void @entry_free(ptr noundef %0) #0 {
  %2 = alloca ptr, align 8
  store ptr %0, ptr %2, align 8, !tbaa !20
  %3 = load ptr, ptr @Curl_cfree, align 8, !tbaa !24
  %4 = load ptr, ptr %2, align 8, !tbaa !20
  call void %3(ptr noundef %4)
  ret void
}

; Function Attrs: nounwind uwtable
define hidden void @Curl_dynhds_reset(ptr noundef %0) #0 {
  %2 = alloca ptr, align 8
  %3 = alloca i64, align 8
  store ptr %0, ptr %2, align 8, !tbaa !3
  br label %4

4:                                                ; preds = %1
  br label %5

5:                                                ; preds = %4
  %6 = load ptr, ptr %2, align 8, !tbaa !3
  %7 = getelementptr inbounds nuw %struct.dynhds, ptr %6, i32 0, i32 1
  %8 = load i64, ptr %7, align 8, !tbaa !16
  %9 = icmp ne i64 %8, 0
  br i1 %9, label %10, label %36

10:                                               ; preds = %5
  call void @llvm.lifetime.start.p0(i64 8, ptr %3) #5
  br label %11

11:                                               ; preds = %10
  br label %12

12:                                               ; preds = %11
  br label %13

13:                                               ; preds = %12
  store i64 0, ptr %3, align 8, !tbaa !8
  br label %14

14:                                               ; preds = %32, %13
  %15 = load i64, ptr %3, align 8, !tbaa !8
  %16 = load ptr, ptr %2, align 8, !tbaa !3
  %17 = getelementptr inbounds nuw %struct.dynhds, ptr %16, i32 0, i32 1
  %18 = load i64, ptr %17, align 8, !tbaa !16
  %19 = icmp ult i64 %15, %18
  br i1 %19, label %20, label %35

20:                                               ; preds = %14
  %21 = load ptr, ptr %2, align 8, !tbaa !3
  %22 = getelementptr inbounds nuw %struct.dynhds, ptr %21, i32 0, i32 0
  %23 = load ptr, ptr %22, align 8, !tbaa !10
  %24 = load i64, ptr %3, align 8, !tbaa !8
  %25 = getelementptr inbounds nuw ptr, ptr %23, i64 %24
  %26 = load ptr, ptr %25, align 8, !tbaa !20
  call void @entry_free(ptr noundef %26)
  %27 = load ptr, ptr %2, align 8, !tbaa !3
  %28 = getelementptr inbounds nuw %struct.dynhds, ptr %27, i32 0, i32 0
  %29 = load ptr, ptr %28, align 8, !tbaa !10
  %30 = load i64, ptr %3, align 8, !tbaa !8
  %31 = getelementptr inbounds nuw ptr, ptr %29, i64 %30
  store ptr null, ptr %31, align 8, !tbaa !20
  br label %32

32:                                               ; preds = %20
  %33 = load i64, ptr %3, align 8, !tbaa !8
  %34 = add i64 %33, 1
  store i64 %34, ptr %3, align 8, !tbaa !8
  br label %14, !llvm.loop !25

35:                                               ; preds = %14
  call void @llvm.lifetime.end.p0(i64 8, ptr %3) #5
  br label %36

36:                                               ; preds = %35, %5
  %37 = load ptr, ptr %2, align 8, !tbaa !3
  %38 = getelementptr inbounds nuw %struct.dynhds, ptr %37, i32 0, i32 4
  store i64 0, ptr %38, align 8, !tbaa !14
  %39 = load ptr, ptr %2, align 8, !tbaa !3
  %40 = getelementptr inbounds nuw %struct.dynhds, ptr %39, i32 0, i32 1
  store i64 0, ptr %40, align 8, !tbaa !16
  ret void
}