; Function Attrs: nounwind uwtable
define hidden void @Curl_dynhds_reset(ptr noundef captures(none) %0) local_unnamed_addr #1 {
  %2 = getelementptr inbounds nuw i8, ptr %0, i64 8
  %3 = load i64, ptr %2, align 8, !tbaa !15
  %.not = icmp eq i64 %3, 0
  br i1 %.not, label %.loopexit, label %.lr.ph.preheader

.lr.ph.preheader:                                 ; preds = %1
  %.pre = load ptr, ptr %0, align 8, !tbaa !14
  br label %.lr.ph

.lr.ph:                                           ; preds = %.lr.ph.preheader, %.lr.ph
  %4 = phi ptr [ %8, %.lr.ph ], [ %.pre, %.lr.ph.preheader ]
  %.09 = phi i64 [ %10, %.lr.ph ], [ 0, %.lr.ph.preheader ]
  %5 = getelementptr inbounds nuw ptr, ptr %4, i64 %.09
  %6 = load ptr, ptr %5, align 8, !tbaa !16
  %7 = load ptr, ptr @Curl_cfree, align 8, !tbaa !18
  tail call void %7(ptr noundef %6) #9
  %8 = load ptr, ptr %0, align 8, !tbaa !14
  %9 = getelementptr inbounds nuw ptr, ptr %8, i64 %.09
  store ptr null, ptr %9, align 8, !tbaa !16
  %10 = add nuw i64 %.09, 1
  %11 = load i64, ptr %2, align 8, !tbaa !15
  %12 = icmp ult i64 %10, %11
  br i1 %12, label %.lr.ph, label %.loopexit, !llvm.loop !21

.loopexit:                                        ; preds = %.lr.ph, %1
  %13 = getelementptr inbounds nuw i8, ptr %0, i64 32
  store i64 0, ptr %13, align 8, !tbaa !3
  store i64 0, ptr %2, align 8, !tbaa !15
  ret void
}